target datalayout = "e-m:e-p270:32:32-p271:32:32-p272:64:64-i64:64-i128:128-f80:128-n8:16:32:64-S128"
target triple = "x86_64-pc-linux-gnu"

%struct.H5HG_t = type { i64, i64 }

@H5R_init_g = global i8 0, align 1
@H5_libterm_g = external global i8, align 1
@.str = private unnamed_addr constant [100 x i8] c"generated/home/dtcxzyw/WorkSpace/Projects/compilers/llvm-opt-benchmark/bench/hdf5/hdf5/src/H5Rint.c\00", align 1
@H5E_REFERENCE_g = external global i64, align 8
@__func__.H5R__encode_heap = private unnamed_addr constant [17 x i8] c"H5R__encode_heap\00", align 1
@H5E_WRITEERROR_g = external global i64, align 8
@.str.38 = private unnamed_addr constant [38 x i8] c"Unable to write reference information\00", align 1

; Function Attrs: nounwind uwtable
define i32 @H5R__encode_heap(ptr noundef %0, ptr noundef %1, ptr noundef %2, ptr noundef %3, i64 noundef %4) #0 {
  %6 = alloca i32, align 4
  %7 = alloca ptr, align 8
  %8 = alloca ptr, align 8
  %9 = alloca ptr, align 8
  %10 = alloca ptr, align 8
  %11 = alloca i64, align 8
  %12 = alloca i64, align 8
  %13 = alloca i32, align 4
  %14 = alloca i8, align 1
  %15 = alloca %struct.H5HG_t, align 8
  %16 = alloca ptr, align 8
  %17 = alloca i32, align 4
  store ptr %0, ptr %7, align 8, !tbaa !46
  store ptr %1, ptr %8, align 8, !tbaa !24
  store ptr %2, ptr %9, align 8, !tbaa !26
  store ptr %3, ptr %10, align 8, !tbaa !24
  store i64 %4, ptr %11, align 8, !tbaa !12
  call void @llvm.lifetime.start.p0(i64 8, ptr %12) #9
  call void @llvm.lifetime.start.p0(i64 4, ptr %13) #9
  store i32 0, ptr %13, align 4, !tbaa !16
  call void @llvm.lifetime.start.p0(i64 1, ptr %14) #9
  store i8 0, ptr %14, align 1, !tbaa !3
  %18 = load i8, ptr @H5R_init_g, align 1, !tbaa !3, !range !7, !noundef !8
  %19 = trunc i8 %18 to i1
  br i1 %19, label %24, label %20

20:                                               ; preds = %5
  %21 = load i8, ptr @H5_libterm_g, align 1, !tbaa !3, !range !7, !noundef !8
  %22 = trunc i8 %21 to i1
  %23 = xor i1 %22, true
  br label %24

24:                                               ; preds = %20, %5
  %25 = phi i1 [ true, %5 ], [ %23, %20 ]
  %26 = xor i1 %25, true
  %27 = xor i1 %26, true
  %28 = zext i1 %27 to i32
  %29 = sext i32 %28 to i64
  %30 = call i64 @llvm.expect.i64(i64 %29, i64 1)
  %31 = icmp ne i64 %30, 0
  br i1 %31, label %32, label %115

32:                                               ; preds = %24
  %33 = load ptr, ptr %7, align 8, !tbaa !46
  %34 = call zeroext i8 @H5F_sizeof_addr(ptr noundef %33)
  %35 = zext i8 %34 to i64
  %36 = add i64 %35, 4
  store i64 %36, ptr %12, align 8, !tbaa !12
  %37 = load ptr, ptr %8, align 8, !tbaa !24
  %38 = icmp ne ptr %37, null
  br i1 %38, label %39, label %111

39:                                               ; preds = %32
  %40 = load ptr, ptr %9, align 8, !tbaa !26
  %41 = load i64, ptr %40, align 8, !tbaa !12
  %42 = load i64, ptr %12, align 8, !tbaa !12
  %43 = icmp uge i64 %41, %42
  br i1 %43, label %44, label %111

44:                                               ; preds = %39
  call void @llvm.lifetime.start.p0(i64 16, ptr %15) #9
  call void @llvm.lifetime.start.p0(i64 8, ptr %16) #9
  %45 = load ptr, ptr %8, align 8, !tbaa !24
  store ptr %45, ptr %16, align 8, !tbaa !24
  %46 = load ptr, ptr %7, align 8, !tbaa !46
  %47 = load i64, ptr %11, align 8, !tbaa !12
  %48 = load ptr, ptr %10, align 8, !tbaa !24
  %49 = call i32 @H5HG_insert(ptr noundef %46, i64 noundef %47, ptr noundef %48, ptr noundef %15)
  %50 = icmp slt i32 %49, 0
  br i1 %50, label %51, label %70

51:                                               ; preds = %44
  br label %52

52:                                               ; preds = %51
  br label %53

53:                                               ; preds = %52
  br label %54

54:                                               ; preds = %53
  %55 = load i64, ptr @H5E_REFERENCE_g, align 8, !tbaa !12
  %56 = load i64, ptr @H5E_WRITEERROR_g, align 8, !tbaa !12
  %57 = call i32 (ptr, ptr, i32, i64, i64, ptr, ...) @H5E_printf_stack(ptr noundef @.str, ptr noundef @__func__.H5R__encode_heap, i32 noundef 1368, i64 noundef %55, i64 noundef %56, ptr noundef @.str.38)
  br label %58

58:                                               ; preds = %54
  br label %59

59:                                               ; preds = %58
  store i8 1, ptr %14, align 1, !tbaa !3
  %60 = load i8, ptr %14, align 1, !tbaa !3, !range !7, !noundef !8
  %61 = trunc i8 %60 to i1
  %62 = zext i1 %61 to i8
  store i8 %62, ptr %14, align 1, !tbaa !3
  br label %63

63:                                               ; preds = %59
  br label %64

64:                                               ; preds = %63
  br label %65

65:                                               ; preds = %64
  store i32 -1, ptr %13, align 4, !tbaa !16
  store i32 10, ptr %17, align 4
  br label %108

66:                                               ; No predecessors!
  br label %67

67:                                               ; preds = %66
  br label %68

68:                                               ; preds = %67
  br label %69

69:                                               ; preds = %68
  br label %70

70:                                               ; preds = %69, %44
  %71 = load ptr, ptr %7, align 8, !tbaa !46
  %72 = getelementptr inbounds nuw %struct.H5HG_t, ptr %15, i32 0, i32 0
  %73 = load i64, ptr %72, align 8, !tbaa !48
  call void @H5F_addr_encode(ptr noundef %71, ptr noundef %16, i64 noundef %73)
  br label %74

74:                                               ; preds = %70
  %75 = getelementptr inbounds nuw %struct.H5HG_t, ptr %15, i32 0, i32 1
  %76 = load i64, ptr %75, align 8, !tbaa !50
  %77 = and i64 %76, 255
  %78 = trunc i64 %77 to i8
  %79 = load ptr, ptr %16, align 8, !tbaa !24
  store i8 %78, ptr %79, align 1, !tbaa !18
  %80 = load ptr, ptr %16, align 8, !tbaa !24
  %81 = getelementptr inbounds nuw i8, ptr %80, i32 1
  store ptr %81, ptr %16, align 8, !tbaa !24
  %82 = getelementptr inbounds nuw %struct.H5HG_t, ptr %15, i32 0, i32 1
  %83 = load i64, ptr %82, align 8, !tbaa !50
  %84 = lshr i64 %83, 8
  %85 = and i64 %84, 255
  %86 = trunc i64 %85 to i8
  %87 = load ptr, ptr %16, align 8, !tbaa !24
  store i8 %86, ptr %87, align 1, !tbaa !18
  %88 = load ptr, ptr %16, align 8, !tbaa !24
  %89 = getelementptr inbounds nuw i8, ptr %88, i32 1
  store ptr %89, ptr %16, align 8, !tbaa !24
  %90 = getelementptr inbounds nuw %struct.H5HG_t, ptr %15, i32 0, i32 1
  %91 = load i64, ptr %90, align 8, !tbaa !50
  %92 = lshr i64 %91, 16
  %93 = and i64 %92, 255
  %94 = trunc i64 %93 to i8
  %95 = load ptr, ptr %16, align 8, !tbaa !24
  store i8 %94, ptr %95, align 1, !tbaa !18
  %96 = load ptr, ptr %16, align 8, !tbaa !24
  %97 = getelementptr inbounds nuw i8, ptr %96, i32 1
  store ptr %97, ptr %16, align 8, !tbaa !24
  %98 = getelementptr inbounds nuw %struct.H5HG_t, ptr %15, i32 0, i32 1
  %99 = load i64, ptr %98, align 8, !tbaa !50
  %100 = lshr i64 %99, 24
  %101 = and i64 %100, 255
  %102 = trunc i64 %101 to i8
  %103 = load ptr, ptr %16, align 8, !tbaa !24
  store i8 %102, ptr %103, align 1, !tbaa !18
  %104 = load ptr, ptr %16, align 8, !tbaa !24
  %105 = getelementptr inbounds nuw i8, ptr %104, i32 1
  store ptr %105, ptr %16, align 8, !tbaa !24
  br label %106

106:                                              ; preds = %74
  br label %107

107:                                              ; preds = %106
  store i32 0, ptr %17, align 4
  br label %108

108:                                              ; preds = %65, %107
  call void @llvm.lifetime.end.p0(i64 8, ptr %16) #9
  call void @llvm.lifetime.end.p0(i64 16, ptr %15) #9
  %109 = load i32, ptr %17, align 4
  switch i32 %109, label %117 [
    i32 0, label %110
    i32 10, label %114
  ]

110:                                              ; preds = %108
  br label %111

111:                                              ; preds = %110, %39, %32
  %112 = load i64, ptr %12, align 8, !tbaa !12
  %113 = load ptr, ptr %9, align 8, !tbaa !26
  store i64 %112, ptr %113, align 8, !tbaa !12
  br label %114

114:                                              ; preds = %111, %108
  br label %115

115:                                              ; preds = %114, %24
  %116 = load i32, ptr %13, align 4, !tbaa !16
  store i32 %116, ptr %6, align 4
  store i32 1, ptr %17, align 4
  br label %117

117:                                              ; preds = %115, %108
  call void @llvm.lifetime.end.p0(i64 1, ptr %14) #9
  call void @llvm.lifetime.end.p0(i64 4, ptr %13) #9
  call void @llvm.lifetime.end.p0(i64 8, ptr %12) #9
  %118 = load i32, ptr %6, align 4
  ret i32 %118
}