; Function Attrs: nounwind uwtable
define range(i32 -1, 1) i32 @H5R__encode_heap(ptr noundef %0, ptr noundef %1, ptr noundef captures(none) %2, ptr noundef %3, i64 noundef %4) local_unnamed_addr #1 {
  %6 = alloca %struct.H5HG_t, align 8
  %7 = alloca ptr, align 8
  %8 = load i8, ptr @H5R_init_g, align 1, !tbaa !3, !range !7, !noundef !8
  %9 = trunc nuw i8 %8 to i1
  %10 = load i8, ptr @H5_libterm_g, align 1, !range !7
  %11 = trunc nuw i8 %10 to i1
  %12 = xor i1 %11, true
  %13 = select i1 %9, i1 true, i1 %12
  br i1 %13, label %14, label %48, !prof !9

14:                                               ; preds = %5
  %15 = tail call zeroext i8 @H5F_sizeof_addr(ptr noundef %0) #15
  %16 = zext i8 %15 to i64
  %17 = add nuw nsw i64 %16, 4
  %.not = icmp eq ptr %1, null
  br i1 %.not, label %47, label %18

18:                                               ; preds = %14
  %19 = load i64, ptr %2, align 8, !tbaa !17
  %.not17 = icmp ult i64 %19, %17
  br i1 %.not17, label %47, label %20

20:                                               ; preds = %18
  call void @llvm.lifetime.start.p0(i64 16, ptr nonnull %6) #15
  call void @llvm.lifetime.start.p0(i64 8, ptr nonnull %7) #15
  store ptr %1, ptr %7, align 8, !tbaa !19
  %21 = call i32 @H5HG_insert(ptr noundef %0, i64 noundef %4, ptr noundef %3, ptr noundef nonnull %6) #15
  %22 = icmp slt i32 %21, 0
  br i1 %22, label %43, label %.thread

.thread:                                          ; preds = %20
  %23 = load i64, ptr %6, align 8, !tbaa !31
  call void @H5F_addr_encode(ptr noundef %0, ptr noundef nonnull %7, i64 noundef %23) #15
  %24 = getelementptr inbounds nuw i8, ptr %6, i64 8
  %25 = load i64, ptr %24, align 8, !tbaa !33
  %26 = trunc i64 %25 to i8
  %27 = load ptr, ptr %7, align 8, !tbaa !19
  store i8 %26, ptr %27, align 1, !tbaa !10
  %28 = load ptr, ptr %7, align 8, !tbaa !19
  %29 = getelementptr inbounds nuw i8, ptr %28, i64 1
  store ptr %29, ptr %7, align 8, !tbaa !19
  %30 = load i64, ptr %24, align 8, !tbaa !33
  %31 = lshr i64 %30, 8
  %32 = trunc i64 %31 to i8
  store i8 %32, ptr %29, align 1, !tbaa !10
  %33 = load ptr, ptr %7, align 8, !tbaa !19
  %34 = getelementptr inbounds nuw i8, ptr %33, i64 1
  store ptr %34, ptr %7, align 8, !tbaa !19
  %35 = load i64, ptr %24, align 8, !tbaa !33
  %36 = lshr i64 %35, 16
  %37 = trunc i64 %36 to i8
  store i8 %37, ptr %34, align 1, !tbaa !10
  %38 = load ptr, ptr %7, align 8, !tbaa !19
  %39 = getelementptr inbounds nuw i8, ptr %38, i64 1
  %40 = load i64, ptr %24, align 8, !tbaa !33
  %41 = lshr i64 %40, 24
  %42 = trunc i64 %41 to i8
  store i8 %42, ptr %39, align 1, !tbaa !10
  call void @llvm.lifetime.end.p0(i64 8, ptr nonnull %7) #15
  call void @llvm.lifetime.end.p0(i64 16, ptr nonnull %6) #15
  br label %47

43:                                               ; preds = %20
  %44 = load i64, ptr @H5E_REFERENCE_g, align 8, !tbaa !17
  %45 = load i64, ptr @H5E_WRITEERROR_g, align 8, !tbaa !17
  %46 = call i32 (ptr, ptr, i32, i64, i64, ptr, ...) @H5E_printf_stack(ptr noundef nonnull @.str, ptr noundef nonnull @__func__.H5R__encode_heap, i32 noundef 1368, i64 noundef %44, i64 noundef %45, ptr noundef nonnull @.str.38) #15
  call void @llvm.lifetime.end.p0(i64 8, ptr nonnull %7) #15
  call void @llvm.lifetime.end.p0(i64 16, ptr nonnull %6) #15
  br label %48

47:                                               ; preds = %.thread, %18, %14
  store i64 %17, ptr %2, align 8, !tbaa !17
  br label %48

48:                                               ; preds = %43, %5, %47
  %.015 = phi i32 [ -1, %43 ], [ 0, %47 ], [ 0, %5 ]
  ret i32 %.015
}